target datalayout = "e-m:e-p270:32:32-p271:32:32-p272:64:64-i64:64-i128:128-f80:128-n8:16:32:64-S128"
target triple = "x86_64-unknown-linux-gnu"

%"class.q::mbqi" = type { ptr, ptr, ptr, %"struct.q::mbqi::stats", %"class.q::model_fixer", %class.ref, %"struct.sat::no_drat_params", %class.ref.12, %class.scoped_ptr_vector.13, %class.scoped_ptr_vector.16, %class.obj_map.19, i32, i32, i32, i32, i32, i32, %class.vector.24, %class.vector.25 }
%"struct.q::mbqi::stats" = type { i32, i32 }
%"class.q::model_fixer" = type { %class.quantifier2macro_infos, ptr, ptr, ptr, %class.obj_map, %class.func_decl_dependencies, %class.obj_map.5, %class.map, %class.scoped_ptr_vector }
%class.quantifier2macro_infos = type { ptr }
%class.obj_map = type { %class.core_hashtable }
%class.core_hashtable = type <{ ptr, i32, i32, i32, [4 x i8] }>
%class.func_decl_dependencies = type { ptr, %class.obj_map.0 }
%class.obj_map.0 = type { %class.core_hashtable.1 }
%class.core_hashtable.1 = type <{ ptr, i32, i32, i32, [4 x i8] }>
%class.obj_map.5 = type { %class.core_hashtable.6 }
%class.core_hashtable.6 = type <{ ptr, i32, i32, i32, [4 x i8] }>
%class.map = type { %class.table2map }
%class.table2map = type { %class.core_hashtable.10 }
%class.core_hashtable.10 = type <{ ptr, i32, i32, i32, [4 x i8] }>
%class.scoped_ptr_vector = type { %class.ptr_vector }
%class.ptr_vector = type { %class.vector }
%class.vector = type { ptr }
%class.ref = type { ptr }
%"struct.sat::no_drat_params" = type { %class.params_ref }
%class.params_ref = type { ptr }
%class.ref.12 = type { ptr }
%class.scoped_ptr_vector.13 = type { %class.ptr_vector.14 }
%class.ptr_vector.14 = type { %class.vector.15 }
%class.vector.15 = type { ptr }
%class.scoped_ptr_vector.16 = type { %class.ptr_vector.17 }
%class.ptr_vector.17 = type { %class.vector.18 }
%class.vector.18 = type { ptr }
%class.obj_map.19 = type { %class.core_hashtable.20 }
%class.core_hashtable.20 = type <{ ptr, i32, i32, i32, [4 x i8] }>
%class.vector.24 = type { ptr }
%class.vector.25 = type { ptr }

; Function Attrs: mustprogress uwtable
define linkonce_odr hidden noundef nonnull align 8 dereferenceable(8) ptr @_ZN6vectorIPN3mbp14project_pluginELb0EjE9push_backERKS2_(ptr noundef nonnull align 8 dereferenceable(8) %this, ptr noundef nonnull align 8 dereferenceable(8) %elem) #5 comdat align 2 {
entry:
  %this.addr = alloca ptr, align 8
  %elem.addr = alloca ptr, align 8
  store ptr %this, ptr %this.addr, align 8
  store ptr %elem, ptr %elem.addr, align 8
  %this1 = load ptr, ptr %this.addr, align 8
  %m_data = getelementptr inbounds %class.vector.18, ptr %this1, i32 0, i32 0
  %0 = load ptr, ptr %m_data, align 8
  %cmp = icmp eq ptr %0, null
  br i1 %cmp, label %if.then, label %lor.lhs.false

lor.lhs.false:                                    ; preds = %entry
  %m_data2 = getelementptr inbounds %class.vector.18, ptr %this1, i32 0, i32 0
  %1 = load ptr, ptr %m_data2, align 8
  %arrayidx = getelementptr inbounds i32, ptr %1, i64 -1
  %2 = load i32, ptr %arrayidx, align 4
  %m_data3 = getelementptr inbounds %class.vector.18, ptr %this1, i32 0, i32 0
  %3 = load ptr, ptr %m_data3, align 8
  %arrayidx4 = getelementptr inbounds i32, ptr %3, i64 -2
  %4 = load i32, ptr %arrayidx4, align 4
  %cmp5 = icmp eq i32 %2, %4
  br i1 %cmp5, label %if.then, label %if.end

if.then:                                          ; preds = %lor.lhs.false, %entry
  call void @_ZN6vectorIPN3mbp14project_pluginELb0EjE13expand_vectorEv(ptr noundef nonnull align 8 dereferenceable(8) %this1)
  br label %if.end

if.end:                                           ; preds = %if.then, %lor.lhs.false
  %m_data6 = getelementptr inbounds %class.vector.18, ptr %this1, i32 0, i32 0
  %5 = load ptr, ptr %m_data6, align 8
  %m_data7 = getelementptr inbounds %class.vector.18, ptr %this1, i32 0, i32 0
  %6 = load ptr, ptr %m_data7, align 8
  %arrayidx8 = getelementptr inbounds i32, ptr %6, i64 -1
  %7 = load i32, ptr %arrayidx8, align 4
  %idx.ext = zext i32 %7 to i64
  %add.ptr = getelementptr inbounds ptr, ptr %5, i64 %idx.ext
  %8 = load ptr, ptr %elem.addr, align 8
  %9 = load ptr, ptr %8, align 8
  store ptr %9, ptr %add.ptr, align 8
  %m_data9 = getelementptr inbounds %class.vector.18, ptr %this1, i32 0, i32 0
  %10 = load ptr, ptr %m_data9, align 8
  %arrayidx10 = getelementptr inbounds i32, ptr %10, i64 -1
  %11 = load i32, ptr %arrayidx10, align 4
  %inc = add i32 %11, 1
  store i32 %inc, ptr %arrayidx10, align 4
  ret ptr %this1
}

; Function Attrs: mustprogress uwtable
define linkonce_odr hidden void @_ZN17scoped_ptr_vectorIN3mbp14project_pluginEE9push_backEPS1_(ptr noundef nonnull align 8 dereferenceable(8) %this, ptr noundef %ptr) #5 comdat align 2 {
entry:
  %this.addr = alloca ptr, align 8
  %ptr.addr = alloca ptr, align 8
  store ptr %this, ptr %this.addr, align 8
  store ptr %ptr, ptr %ptr.addr, align 8
  %this1 = load ptr, ptr %this.addr, align 8
  %m_vector = getelementptr inbounds %class.scoped_ptr_vector.16, ptr %this1, i32 0, i32 0
  %call = call noundef nonnull align 8 dereferenceable(8) ptr @_ZN6vectorIPN3mbp14project_pluginELb0EjE9push_backERKS2_(ptr noundef nonnull align 8 dereferenceable(8) %m_vector, ptr noundef nonnull align 8 dereferenceable(8) %ptr.addr)
  ret void
}

; Function Attrs: mustprogress nounwind uwtable
define linkonce_odr hidden void @_ZN6vectorIPN3mbp14project_pluginELb0EjE6shrinkEj(ptr noundef nonnull align 8 dereferenceable(8) %this, i32 noundef %s) #4 comdat align 2 {
entry:
  %this.addr = alloca ptr, align 8
  %s.addr = alloca i32, align 4
  store ptr %this, ptr %this.addr, align 8
  store i32 %s, ptr %s.addr, align 4
  %this1 = load ptr, ptr %this.addr, align 8
  %m_data = getelementptr inbounds %class.vector.18, ptr %this1, i32 0, i32 0
  %0 = load ptr, ptr %m_data, align 8
  %tobool = icmp ne ptr %0, null
  br i1 %tobool, label %if.then, label %if.else

if.then:                                          ; preds = %entry
  %1 = load i32, ptr %s.addr, align 4
  %m_data2 = getelementptr inbounds %class.vector.18, ptr %this1, i32 0, i32 0
  %2 = load ptr, ptr %m_data2, align 8
  %arrayidx = getelementptr inbounds i32, ptr %2, i64 -1
  store i32 %1, ptr %arrayidx, align 4
  br label %if.end

if.else:                                          ; preds = %entry
  br label %if.end

if.end:                                           ; preds = %if.else, %if.then
  ret void
}

; Function Attrs: mustprogress uwtable
define linkonce_odr hidden void @_Z7deallocIN3mbp14project_pluginEEvPT_(ptr noundef %ptr) #5 comdat {
entry:
  %ptr.addr = alloca ptr, align 8
  store ptr %ptr, ptr %ptr.addr, align 8
  %0 = load ptr, ptr %ptr.addr, align 8
  %cmp = icmp eq ptr %0, null
  br i1 %cmp, label %if.then, label %if.end

if.then:                                          ; preds = %entry
  br label %return

if.end:                                           ; preds = %entry
  %1 = load ptr, ptr %ptr.addr, align 8
  %vtable = load ptr, ptr %1, align 8
  %vfn = getelementptr inbounds ptr, ptr %vtable, i64 0
  %2 = load ptr, ptr %vfn, align 8
  call void %2(ptr noundef nonnull align 8 dereferenceable(144) %1) #3
  %3 = load ptr, ptr %ptr.addr, align 8
  call void @_ZN6memory10deallocateEPv(ptr noundef %3)
  br label %return

return:                                           ; preds = %if.end, %if.then
  ret void
}

; Function Attrs: mustprogress nounwind uwtable
define linkonce_odr hidden noundef nonnull align 8 dereferenceable(8) ptr @_ZN6vectorIPN3mbp14project_pluginELb0EjEixEj(ptr noundef nonnull align 8 dereferenceable(8) %this, i32 noundef %idx) #4 comdat align 2 {
entry:
  %this.addr = alloca ptr, align 8
  %idx.addr = alloca i32, align 4
  store ptr %this, ptr %this.addr, align 8
  store i32 %idx, ptr %idx.addr, align 4
  %this1 = load ptr, ptr %this.addr, align 8
  %m_data = getelementptr inbounds %class.vector.18, ptr %this1, i32 0, i32 0
  %0 = load ptr, ptr %m_data, align 8
  %1 = load i32, ptr %idx.addr, align 4
  %idxprom = zext i32 %1 to i64
  %arrayidx = getelementptr inbounds ptr, ptr %0, i64 %idxprom
  ret ptr %arrayidx
}

; Function Attrs: mustprogress uwtable
define linkonce_odr hidden void @_ZN17scoped_ptr_vectorIN3mbp14project_pluginEE6resizeEj(ptr noundef nonnull align 8 dereferenceable(8) %this, i32 noundef %sz) #5 comdat align 2 {
entry:
  %this.addr = alloca ptr, align 8
  %sz.addr = alloca i32, align 4
  %i = alloca i32, align 4
  %i8 = alloca i32, align 4
  store ptr %this, ptr %this.addr, align 8
  store i32 %sz, ptr %sz.addr, align 4
  %this1 = load ptr, ptr %this.addr, align 8
  %0 = load i32, ptr %sz.addr, align 4
  %m_vector = getelementptr inbounds %class.scoped_ptr_vector.16, ptr %this1, i32 0, i32 0
  %call = call noundef i32 @_ZNK6vectorIPN3mbp14project_pluginELb0EjE4sizeEv(ptr noundef nonnull align 8 dereferenceable(8) %m_vector)
  %cmp = icmp ult i32 %0, %call
  br i1 %cmp, label %if.then, label %if.else

if.then:                                          ; preds = %entry
  %m_vector2 = getelementptr inbounds %class.scoped_ptr_vector.16, ptr %this1, i32 0, i32 0
  %call3 = call noundef i32 @_ZNK6vectorIPN3mbp14project_pluginELb0EjE4sizeEv(ptr noundef nonnull align 8 dereferenceable(8) %m_vector2)
  store i32 %call3, ptr %i, align 4
  br label %for.cond

for.cond:                                         ; preds = %for.body, %if.then
  %1 = load i32, ptr %i, align 4
  %dec = add i32 %1, -1
  store i32 %dec, ptr %i, align 4
  %2 = load i32, ptr %sz.addr, align 4
  %cmp4 = icmp ugt i32 %1, %2
  br i1 %cmp4, label %for.body, label %for.end

for.body:                                         ; preds = %for.cond
  %m_vector5 = getelementptr inbounds %class.scoped_ptr_vector.16, ptr %this1, i32 0, i32 0
  %3 = load i32, ptr %i, align 4
  %call6 = call noundef nonnull align 8 dereferenceable(8) ptr @_ZN6vectorIPN3mbp14project_pluginELb0EjEixEj(ptr noundef nonnull align 8 dereferenceable(8) %m_vector5, i32 noundef %3)
  %4 = load ptr, ptr %call6, align 8
  call void @_Z7deallocIN3mbp14project_pluginEEvPT_(ptr noundef %4)
  br label %for.cond, !llvm.loop !59

for.end:                                          ; preds = %for.cond
  %m_vector7 = getelementptr inbounds %class.scoped_ptr_vector.16, ptr %this1, i32 0, i32 0
  %5 = load i32, ptr %sz.addr, align 4
  call void @_ZN6vectorIPN3mbp14project_pluginELb0EjE6shrinkEj(ptr noundef nonnull align 8 dereferenceable(8) %m_vector7, i32 noundef %5)
  br label %if.end

if.else:                                          ; preds = %entry
  %m_vector9 = getelementptr inbounds %class.scoped_ptr_vector.16, ptr %this1, i32 0, i32 0
  %call10 = call noundef i32 @_ZNK6vectorIPN3mbp14project_pluginELb0EjE4sizeEv(ptr noundef nonnull align 8 dereferenceable(8) %m_vector9)
  store i32 %call10, ptr %i8, align 4
  br label %for.cond11

for.cond11:                                       ; preds = %for.inc, %if.else
  %6 = load i32, ptr %i8, align 4
  %7 = load i32, ptr %sz.addr, align 4
  %cmp12 = icmp ult i32 %6, %7
  br i1 %cmp12, label %for.body13, label %for.end14

for.body13:                                       ; preds = %for.cond11
  call void @_ZN17scoped_ptr_vectorIN3mbp14project_pluginEE9push_backEPS1_(ptr noundef nonnull align 8 dereferenceable(8) %this1, ptr noundef null)
  br label %for.inc

for.inc:                                          ; preds = %for.body13
  %8 = load i32, ptr %i8, align 4
  %inc = add i32 %8, 1
  store i32 %inc, ptr %i8, align 4
  br label %for.cond11, !llvm.loop !60

for.end14:                                        ; preds = %for.cond11
  br label %if.end

if.end:                                           ; preds = %for.end14, %for.end
  ret void
}

; Function Attrs: mustprogress nounwind uwtable
define linkonce_odr hidden noundef i32 @_ZNK6vectorIPN3mbp14project_pluginELb0EjE4sizeEv(ptr noundef nonnull align 8 dereferenceable(8) %this) #4 comdat align 2 {
entry:
  %retval = alloca i32, align 4
  %this.addr = alloca ptr, align 8
  store ptr %this, ptr %this.addr, align 8
  %this1 = load ptr, ptr %this.addr, align 8
  %m_data = getelementptr inbounds %class.vector.18, ptr %this1, i32 0, i32 0
  %0 = load ptr, ptr %m_data, align 8
  %cmp = icmp eq ptr %0, null
  br i1 %cmp, label %if.then, label %if.end

if.then:                                          ; preds = %entry
  store i32 0, ptr %retval, align 4
  br label %return

if.end:                                           ; preds = %entry
  %m_data2 = getelementptr inbounds %class.vector.18, ptr %this1, i32 0, i32 0
  %1 = load ptr, ptr %m_data2, align 8
  %arrayidx = getelementptr inbounds i32, ptr %1, i64 -1
  %2 = load i32, ptr %arrayidx, align 4
  store i32 %2, ptr %retval, align 4
  br label %return

return:                                           ; preds = %if.end, %if.then
  %3 = load i32, ptr %retval, align 4
  ret i32 %3
}

; Function Attrs: mustprogress uwtable
define linkonce_odr hidden void @_ZN17scoped_ptr_vectorIN3mbp14project_pluginEE3setEjPS1_(ptr noundef nonnull align 8 dereferenceable(8) %this, i32 noundef %idx, ptr noundef %ptr) #5 comdat align 2 {
entry:
  %this.addr = alloca ptr, align 8
  %idx.addr = alloca i32, align 4
  %ptr.addr = alloca ptr, align 8
  store ptr %this, ptr %this.addr, align 8
  store i32 %idx, ptr %idx.addr, align 4
  store ptr %ptr, ptr %ptr.addr, align 8
  %this1 = load ptr, ptr %this.addr, align 8
  %m_vector = getelementptr inbounds %class.scoped_ptr_vector.16, ptr %this1, i32 0, i32 0
  %0 = load i32, ptr %idx.addr, align 4
  %call = call noundef nonnull align 8 dereferenceable(8) ptr @_ZN6vectorIPN3mbp14project_pluginELb0EjEixEj(ptr noundef nonnull align 8 dereferenceable(8) %m_vector, i32 noundef %0)
  %1 = load ptr, ptr %call, align 8
  %2 = load ptr, ptr %ptr.addr, align 8
  %cmp = icmp eq ptr %1, %2
  br i1 %cmp, label %if.then, label %if.end

if.then:                                          ; preds = %entry
  br label %return

if.end:                                           ; preds = %entry
  %m_vector2 = getelementptr inbounds %class.scoped_ptr_vector.16, ptr %this1, i32 0, i32 0
  %3 = load i32, ptr %idx.addr, align 4
  %call3 = call noundef nonnull align 8 dereferenceable(8) ptr @_ZN6vectorIPN3mbp14project_pluginELb0EjEixEj(ptr noundef nonnull align 8 dereferenceable(8) %m_vector2, i32 noundef %3)
  %4 = load ptr, ptr %call3, align 8
  call void @_Z7deallocIN3mbp14project_pluginEEvPT_(ptr noundef %4)
  %5 = load ptr, ptr %ptr.addr, align 8
  %m_vector4 = getelementptr inbounds %class.scoped_ptr_vector.16, ptr %this1, i32 0, i32 0
  %6 = load i32, ptr %idx.addr, align 4
  %call5 = call noundef nonnull align 8 dereferenceable(8) ptr @_ZN6vectorIPN3mbp14project_pluginELb0EjEixEj(ptr noundef nonnull align 8 dereferenceable(8) %m_vector4, i32 noundef %6)
  store ptr %5, ptr %call5, align 8
  br label %return

return:                                           ; preds = %if.end, %if.then
  ret void
}

; Function Attrs: mustprogress uwtable
define linkonce_odr hidden void @_ZN17scoped_ptr_vectorIN3mbp14project_pluginEE7reserveEj(ptr noundef nonnull align 8 dereferenceable(8) %this, i32 noundef %sz) #5 comdat align 2 {
entry:
  %this.addr = alloca ptr, align 8
  %sz.addr = alloca i32, align 4
  store ptr %this, ptr %this.addr, align 8
  store i32 %sz, ptr %sz.addr, align 4
  %this1 = load ptr, ptr %this.addr, align 8
  %0 = load i32, ptr %sz.addr, align 4
  %m_vector = getelementptr inbounds %class.scoped_ptr_vector.16, ptr %this1, i32 0, i32 0
  %call = call noundef i32 @_ZNK6vectorIPN3mbp14project_pluginELb0EjE4sizeEv(ptr noundef nonnull align 8 dereferenceable(8) %m_vector)
  %cmp = icmp uge i32 %0, %call
  br i1 %cmp, label %if.then, label %if.end

if.then:                                          ; preds = %entry
  %1 = load i32, ptr %sz.addr, align 4
  call void @_ZN17scoped_ptr_vectorIN3mbp14project_pluginEE6resizeEj(ptr noundef nonnull align 8 dereferenceable(8) %this1, i32 noundef %1)
  br label %if.end

if.end:                                           ; preds = %if.then, %entry
  ret void
}

; Function Attrs: mustprogress uwtable
define hidden void @_ZN1q4mbqi10add_pluginEPN3mbp14project_pluginE(ptr noundef nonnull align 8 dereferenceable(280) %this, ptr noundef %p) #5 align 2 {
entry:
  %this.addr = alloca ptr, align 8
  %p.addr = alloca ptr, align 8
  %fid = alloca i32, align 4
  store ptr %this, ptr %this.addr, align 8
  store ptr %p, ptr %p.addr, align 8
  %this1 = load ptr, ptr %this.addr, align 8
  %0 = load ptr, ptr %p.addr, align 8
  %vtable = load ptr, ptr %0, align 8
  %vfn = getelementptr inbounds ptr, ptr %vtable, i64 4
  %1 = load ptr, ptr %vfn, align 8
  %call = call noundef i32 %1(ptr noundef nonnull align 8 dereferenceable(144) %0)
  store i32 %call, ptr %fid, align 4
  %m_plugins = getelementptr inbounds %"class.q::mbqi", ptr %this1, i32 0, i32 9
  %2 = load i32, ptr %fid, align 4
  %add = add nsw i32 %2, 1
  call void @_ZN17scoped_ptr_vectorIN3mbp14project_pluginEE7reserveEj(ptr noundef nonnull align 8 dereferenceable(8) %m_plugins, i32 noundef %add)
  %m_plugins2 = getelementptr inbounds %"class.q::mbqi", ptr %this1, i32 0, i32 9
  %3 = load i32, ptr %fid, align 4
  %4 = load ptr, ptr %p.addr, align 8
  call void @_ZN17scoped_ptr_vectorIN3mbp14project_pluginEE3setEjPS1_(ptr noundef nonnull align 8 dereferenceable(8) %m_plugins2, i32 noundef %3, ptr noundef %4)
  ret void
}