; Function Attrs: mustprogress uwtable
define hidden void @_ZN1q4mbqi10add_pluginEPN3mbp14project_pluginE(ptr noundef nonnull align 8 dereferenceable(280) %this, ptr noundef %p) local_unnamed_addr #3 align 2 {
entry:
  %vtable = load ptr, ptr %p, align 8
  %vfn = getelementptr inbounds i8, ptr %vtable, i64 32
  %0 = load ptr, ptr %vfn, align 8
  %call = tail call noundef i32 %0(ptr noundef nonnull align 8 dereferenceable(144) %p)
  %m_plugins = getelementptr inbounds i8, ptr %this, i64 208
  %add = add nsw i32 %call, 1
  %1 = load ptr, ptr %m_plugins, align 8
  %cmp.i.i = icmp eq ptr %1, null
  br i1 %cmp.i.i, label %_ZNK6vectorIPN3mbp14project_pluginELb0EjE4sizeEv.exit20.i.i, label %_ZNK6vectorIPN3mbp14project_pluginELb0EjE4sizeEv.exit.i

_ZNK6vectorIPN3mbp14project_pluginELb0EjE4sizeEv.exit.i: ; preds = %entry
  %arrayidx.i.i = getelementptr inbounds i8, ptr %1, i64 -4
  %2 = load i32, ptr %arrayidx.i.i, align 4
  %cmp.not.i = icmp ugt i32 %2, %add
  br i1 %cmp.not.i, label %_ZN17scoped_ptr_vectorIN3mbp14project_pluginEE7reserveEj.exit, label %_ZNK6vectorIPN3mbp14project_pluginELb0EjE4sizeEv.exit20.i.i

_ZNK6vectorIPN3mbp14project_pluginELb0EjE4sizeEv.exit20.i.i: ; preds = %_ZNK6vectorIPN3mbp14project_pluginELb0EjE4sizeEv.exit.i, %entry
  %retval.0.i19.i.i = phi i32 [ 0, %entry ], [ %2, %_ZNK6vectorIPN3mbp14project_pluginELb0EjE4sizeEv.exit.i ]
  %cmp1225.i.i = icmp ult i32 %retval.0.i19.i.i, %add
  br i1 %cmp1225.i.i, label %for.body13.i.i, label %_ZN17scoped_ptr_vectorIN3mbp14project_pluginEE7reserveEj.exit

for.body13.i.i:                                   ; preds = %_ZNK6vectorIPN3mbp14project_pluginELb0EjE4sizeEv.exit20.i.i, %_ZN17scoped_ptr_vectorIN3mbp14project_pluginEE9push_backEPS1_.exit.i.i
  %i8.026.i.i = phi i32 [ %inc.i.i, %_ZN17scoped_ptr_vectorIN3mbp14project_pluginEE9push_backEPS1_.exit.i.i ], [ %retval.0.i19.i.i, %_ZNK6vectorIPN3mbp14project_pluginELb0EjE4sizeEv.exit20.i.i ]
  %3 = load ptr, ptr %m_plugins, align 8
  %cmp.i.i.i.i = icmp eq ptr %3, null
  br i1 %cmp.i.i.i.i, label %if.then.i.i.i.i, label %lor.lhs.false.i.i.i.i

lor.lhs.false.i.i.i.i:                            ; preds = %for.body13.i.i
  %arrayidx.i.i.i.i = getelementptr inbounds i8, ptr %3, i64 -4
  %4 = load i32, ptr %arrayidx.i.i.i.i, align 4
  %arrayidx4.i.i.i.i = getelementptr inbounds i8, ptr %3, i64 -8
  %5 = load i32, ptr %arrayidx4.i.i.i.i, align 4
  %cmp5.i.i.i.i = icmp eq i32 %4, %5
  br i1 %cmp5.i.i.i.i, label %if.then.i.i.i.i, label %_ZN17scoped_ptr_vectorIN3mbp14project_pluginEE9push_backEPS1_.exit.i.i

if.then.i.i.i.i:                                  ; preds = %lor.lhs.false.i.i.i.i, %for.body13.i.i
  tail call void @_ZN6vectorIPN3mbp14project_pluginELb0EjE13expand_vectorEv(ptr noundef nonnull align 8 dereferenceable(8) %m_plugins)
  %.pre.i.i.i.i = load ptr, ptr %m_plugins, align 8
  %arrayidx8.phi.trans.insert.i.i.i.i = getelementptr inbounds i8, ptr %.pre.i.i.i.i, i64 -4
  %.pre1.i.i.i.i = load i32, ptr %arrayidx8.phi.trans.insert.i.i.i.i, align 4
  br label %_ZN17scoped_ptr_vectorIN3mbp14project_pluginEE9push_backEPS1_.exit.i.i

_ZN17scoped_ptr_vectorIN3mbp14project_pluginEE9push_backEPS1_.exit.i.i: ; preds = %if.then.i.i.i.i, %lor.lhs.false.i.i.i.i
  %6 = phi i32 [ %.pre1.i.i.i.i, %if.then.i.i.i.i ], [ %4, %lor.lhs.false.i.i.i.i ]
  %7 = phi ptr [ %.pre.i.i.i.i, %if.then.i.i.i.i ], [ %3, %lor.lhs.false.i.i.i.i ]
  %idx.ext.i.i.i.i = zext i32 %6 to i64
  %add.ptr.i.i.i.i = getelementptr inbounds ptr, ptr %7, i64 %idx.ext.i.i.i.i
  store ptr null, ptr %add.ptr.i.i.i.i, align 8
  %8 = load ptr, ptr %m_plugins, align 8
  %arrayidx10.i.i.i.i = getelementptr inbounds i8, ptr %8, i64 -4
  %9 = load i32, ptr %arrayidx10.i.i.i.i, align 4
  %inc.i.i.i.i = add i32 %9, 1
  store i32 %inc.i.i.i.i, ptr %arrayidx10.i.i.i.i, align 4
  %inc.i.i = add i32 %i8.026.i.i, 1
  %exitcond.not.i.i = icmp eq i32 %i8.026.i.i, %call
  br i1 %exitcond.not.i.i, label %_ZN17scoped_ptr_vectorIN3mbp14project_pluginEE7reserveEj.exit.loopexit, label %for.body13.i.i, !llvm.loop !4

_ZN17scoped_ptr_vectorIN3mbp14project_pluginEE7reserveEj.exit.loopexit: ; preds = %_ZN17scoped_ptr_vectorIN3mbp14project_pluginEE9push_backEPS1_.exit.i.i
  %.pre = load ptr, ptr %m_plugins, align 8
  br label %_ZN17scoped_ptr_vectorIN3mbp14project_pluginEE7reserveEj.exit

_ZN17scoped_ptr_vectorIN3mbp14project_pluginEE7reserveEj.exit: ; preds = %_ZN17scoped_ptr_vectorIN3mbp14project_pluginEE7reserveEj.exit.loopexit, %_ZNK6vectorIPN3mbp14project_pluginELb0EjE4sizeEv.exit.i, %_ZNK6vectorIPN3mbp14project_pluginELb0EjE4sizeEv.exit20.i.i
  %10 = phi ptr [ %.pre, %_ZN17scoped_ptr_vectorIN3mbp14project_pluginEE7reserveEj.exit.loopexit ], [ %1, %_ZNK6vectorIPN3mbp14project_pluginELb0EjE4sizeEv.exit.i ], [ %1, %_ZNK6vectorIPN3mbp14project_pluginELb0EjE4sizeEv.exit20.i.i ]
  %idxprom.i.i = zext i32 %call to i64
  %arrayidx.i.i3 = getelementptr inbounds ptr, ptr %10, i64 %idxprom.i.i
  %11 = load ptr, ptr %arrayidx.i.i3, align 8
  %cmp.i = icmp eq ptr %11, %p
  br i1 %cmp.i, label %_ZN17scoped_ptr_vectorIN3mbp14project_pluginEE3setEjPS1_.exit, label %if.end.i

if.end.i:                                         ; preds = %_ZN17scoped_ptr_vectorIN3mbp14project_pluginEE7reserveEj.exit
  %cmp.i.i4 = icmp eq ptr %11, null
  br i1 %cmp.i.i4, label %_Z7deallocIN3mbp14project_pluginEEvPT_.exit.i, label %if.end.i.i

if.end.i.i:                                       ; preds = %if.end.i
  %vtable.i.i = load ptr, ptr %11, align 8
  %12 = load ptr, ptr %vtable.i.i, align 8
  tail call void %12(ptr noundef nonnull align 8 dereferenceable(144) %11) #18
  tail call void @_ZN6memory10deallocateEPv(ptr noundef nonnull %11)
  %.pre.i = load ptr, ptr %m_plugins, align 8
  br label %_Z7deallocIN3mbp14project_pluginEEvPT_.exit.i

_Z7deallocIN3mbp14project_pluginEEvPT_.exit.i:    ; preds = %if.end.i.i, %if.end.i
  %13 = phi ptr [ %10, %if.end.i ], [ %.pre.i, %if.end.i.i ]
  %arrayidx.i7.i = getelementptr inbounds ptr, ptr %13, i64 %idxprom.i.i
  store ptr %p, ptr %arrayidx.i7.i, align 8
  br label %_ZN17scoped_ptr_vectorIN3mbp14project_pluginEE3setEjPS1_.exit

_ZN17scoped_ptr_vectorIN3mbp14project_pluginEE3setEjPS1_.exit: ; preds = %_ZN17scoped_ptr_vectorIN3mbp14project_pluginEE7reserveEj.exit, %_Z7deallocIN3mbp14project_pluginEEvPT_.exit.i
  ret void
}